target datalayout = "e-m:e-p270:32:32-p271:32:32-p272:64:64-i64:64-i128:128-f80:128-n8:16:32:64-S128"
target triple = "x86_64-pc-linux-gnu"

%struct.forward = type { %struct.slurm_node_alias_addrs_t, i16, i16, ptr, i32, i16, i16 }
%struct.slurm_node_alias_addrs_t = type { i64, ptr, ptr, i32, ptr }
%struct.sockaddr_storage = type { i16, [118 x i8], i64 }
%struct.slurm_msg = type { %struct.sockaddr_storage, ptr, i32, i32, i32, i8, i32, i8, i32, ptr, ptr, i32, ptr, ptr, i16, i8, i16, i16, %struct.forward, ptr, %struct.sockaddr_storage, ptr }
%struct.sib_msg_t = type { i32, ptr, ptr, i32, i16, i16, i64, i32, i32, i32, i32, i64, ptr, i32, i16, ptr, i16, i32 }

@.str.2 = private unnamed_addr constant [22 x i8] c"slurm_protocol_pack.c\00", align 1
@__func__._unpack_sib_msg = private unnamed_addr constant [16 x i8] c"_unpack_sib_msg\00", align 1

; Function Attrs: nounwind uwtable
define internal i32 @_unpack_sib_msg(ptr noundef %0, ptr noundef %1, i16 noundef zeroext %2) #0 {
  %4 = alloca i32, align 4
  %5 = alloca ptr, align 8
  %6 = alloca ptr, align 8
  %7 = alloca i16, align 2
  %8 = alloca ptr, align 8
  %9 = alloca %struct.slurm_msg, align 8
  %10 = alloca i16, align 2
  %11 = alloca i32, align 4
  %12 = alloca i32, align 4
  %13 = alloca i32, align 4
  store ptr %0, ptr %5, align 8
  store ptr %1, ptr %6, align 8
  store i16 %2, ptr %7, align 2
  call void @llvm.lifetime.start.p0(i64 8, ptr %8) #6
  store ptr null, ptr %8, align 8
  call void @llvm.lifetime.start.p0(i64 424, ptr %9) #6
  call void @llvm.lifetime.start.p0(i64 2, ptr %10) #6
  %14 = load i16, ptr %7, align 2
  %15 = zext i16 %14 to i32
  %16 = icmp sge i32 %15, 10240
  br i1 %16, label %17, label %207

17:                                               ; preds = %3
  %18 = call ptr @slurm_xcalloc(i64 noundef 1, i64 noundef 96, i1 noundef zeroext true, i1 noundef zeroext false, ptr noundef @.str.2, i32 noundef 5493, ptr noundef @__func__._unpack_sib_msg)
  store ptr %18, ptr %8, align 8
  %19 = load ptr, ptr %8, align 8
  %20 = load ptr, ptr %5, align 8
  store ptr %19, ptr %20, align 8
  br label %21

21:                                               ; preds = %17
  %22 = load ptr, ptr %8, align 8
  %23 = getelementptr inbounds nuw %struct.sib_msg_t, ptr %22, i32 0, i32 0
  %24 = load ptr, ptr %6, align 8
  %25 = call i32 @unpack32(ptr noundef %23, ptr noundef %24)
  %26 = icmp ne i32 %25, 0
  br i1 %26, label %27, label %28

27:                                               ; preds = %21
  br label %208

28:                                               ; preds = %21
  br label %29

29:                                               ; preds = %28
  br label %30

30:                                               ; preds = %29
  br label %31

31:                                               ; preds = %30
  %32 = load ptr, ptr %8, align 8
  %33 = getelementptr inbounds nuw %struct.sib_msg_t, ptr %32, i32 0, i32 4
  %34 = load ptr, ptr %6, align 8
  %35 = call i32 @unpack16(ptr noundef %33, ptr noundef %34)
  %36 = icmp ne i32 %35, 0
  br i1 %36, label %37, label %38

37:                                               ; preds = %31
  br label %208

38:                                               ; preds = %31
  br label %39

39:                                               ; preds = %38
  br label %40

40:                                               ; preds = %39
  br label %41

41:                                               ; preds = %40
  %42 = load ptr, ptr %8, align 8
  %43 = getelementptr inbounds nuw %struct.sib_msg_t, ptr %42, i32 0, i32 5
  %44 = load ptr, ptr %6, align 8
  %45 = call i32 @unpack16(ptr noundef %43, ptr noundef %44)
  %46 = icmp ne i32 %45, 0
  br i1 %46, label %47, label %48

47:                                               ; preds = %41
  br label %208

48:                                               ; preds = %41
  br label %49

49:                                               ; preds = %48
  br label %50

50:                                               ; preds = %49
  br label %51

51:                                               ; preds = %50
  %52 = load ptr, ptr %8, align 8
  %53 = getelementptr inbounds nuw %struct.sib_msg_t, ptr %52, i32 0, i32 6
  %54 = load ptr, ptr %6, align 8
  %55 = call i32 @unpack64(ptr noundef %53, ptr noundef %54)
  %56 = icmp ne i32 %55, 0
  br i1 %56, label %57, label %58

57:                                               ; preds = %51
  br label %208

58:                                               ; preds = %51
  br label %59

59:                                               ; preds = %58
  br label %60

60:                                               ; preds = %59
  br label %61

61:                                               ; preds = %60
  %62 = load ptr, ptr %8, align 8
  %63 = getelementptr inbounds nuw %struct.sib_msg_t, ptr %62, i32 0, i32 7
  %64 = load ptr, ptr %6, align 8
  %65 = call i32 @unpack32(ptr noundef %63, ptr noundef %64)
  %66 = icmp ne i32 %65, 0
  br i1 %66, label %67, label %68

67:                                               ; preds = %61
  br label %208

68:                                               ; preds = %61
  br label %69

69:                                               ; preds = %68
  br label %70

70:                                               ; preds = %69
  br label %71

71:                                               ; preds = %70
  %72 = load ptr, ptr %8, align 8
  %73 = getelementptr inbounds nuw %struct.sib_msg_t, ptr %72, i32 0, i32 8
  %74 = load ptr, ptr %6, align 8
  %75 = call i32 @unpack32(ptr noundef %73, ptr noundef %74)
  %76 = icmp ne i32 %75, 0
  br i1 %76, label %77, label %78

77:                                               ; preds = %71
  br label %208

78:                                               ; preds = %71
  br label %79

79:                                               ; preds = %78
  br label %80

80:                                               ; preds = %79
  br label %81

81:                                               ; preds = %80
  %82 = load ptr, ptr %8, align 8
  %83 = getelementptr inbounds nuw %struct.sib_msg_t, ptr %82, i32 0, i32 9
  %84 = load ptr, ptr %6, align 8
  %85 = call i32 @unpack32(ptr noundef %83, ptr noundef %84)
  %86 = icmp ne i32 %85, 0
  br i1 %86, label %87, label %88

87:                                               ; preds = %81
  br label %208

88:                                               ; preds = %81
  br label %89

89:                                               ; preds = %88
  br label %90

90:                                               ; preds = %89
  br label %91

91:                                               ; preds = %90
  %92 = load ptr, ptr %8, align 8
  %93 = getelementptr inbounds nuw %struct.sib_msg_t, ptr %92, i32 0, i32 10
  %94 = load ptr, ptr %6, align 8
  %95 = call i32 @unpack32(ptr noundef %93, ptr noundef %94)
  %96 = icmp ne i32 %95, 0
  br i1 %96, label %97, label %98

97:                                               ; preds = %91
  br label %208

98:                                               ; preds = %91
  br label %99

99:                                               ; preds = %98
  br label %100

100:                                              ; preds = %99
  br label %101

101:                                              ; preds = %100
  %102 = load ptr, ptr %8, align 8
  %103 = getelementptr inbounds nuw %struct.sib_msg_t, ptr %102, i32 0, i32 11
  %104 = load ptr, ptr %6, align 8
  %105 = call i32 @unpack_time(ptr noundef %103, ptr noundef %104)
  %106 = icmp ne i32 %105, 0
  br i1 %106, label %107, label %108

107:                                              ; preds = %101
  br label %208

108:                                              ; preds = %101
  br label %109

109:                                              ; preds = %108
  br label %110

110:                                              ; preds = %109
  br label %111

111:                                              ; preds = %110
  call void @llvm.lifetime.start.p0(i64 4, ptr %11) #6
  %112 = load ptr, ptr %8, align 8
  %113 = getelementptr inbounds nuw %struct.sib_msg_t, ptr %112, i32 0, i32 12
  %114 = load ptr, ptr %6, align 8
  %115 = call i32 @unpackstr_xmalloc_chooser(ptr noundef %113, ptr noundef %11, ptr noundef %114)
  %116 = icmp ne i32 %115, 0
  br i1 %116, label %117, label %118

117:                                              ; preds = %111
  store i32 4, ptr %12, align 4
  br label %119

118:                                              ; preds = %111
  store i32 0, ptr %12, align 4
  br label %119

119:                                              ; preds = %117, %118
  call void @llvm.lifetime.end.p0(i64 4, ptr %11) #6
  %120 = load i32, ptr %12, align 4
  switch i32 %120, label %211 [
    i32 0, label %121
    i32 4, label %208
  ]

121:                                              ; preds = %119
  br label %122

122:                                              ; preds = %121
  br label %123

123:                                              ; preds = %122
  br label %124

124:                                              ; preds = %123
  %125 = load ptr, ptr %8, align 8
  %126 = getelementptr inbounds nuw %struct.sib_msg_t, ptr %125, i32 0, i32 13
  %127 = load ptr, ptr %6, align 8
  %128 = call i32 @unpack32(ptr noundef %126, ptr noundef %127)
  %129 = icmp ne i32 %128, 0
  br i1 %129, label %130, label %131

130:                                              ; preds = %124
  br label %208

131:                                              ; preds = %124
  br label %132

132:                                              ; preds = %131
  br label %133

133:                                              ; preds = %132
  br label %134

134:                                              ; preds = %133
  %135 = load ptr, ptr %8, align 8
  %136 = getelementptr inbounds nuw %struct.sib_msg_t, ptr %135, i32 0, i32 14
  %137 = load ptr, ptr %6, align 8
  %138 = call i32 @unpack16(ptr noundef %136, ptr noundef %137)
  %139 = icmp ne i32 %138, 0
  br i1 %139, label %140, label %141

140:                                              ; preds = %134
  br label %208

141:                                              ; preds = %134
  br label %142

142:                                              ; preds = %141
  br label %143

143:                                              ; preds = %142
  br label %144

144:                                              ; preds = %143
  call void @llvm.lifetime.start.p0(i64 4, ptr %13) #6
  %145 = load ptr, ptr %8, align 8
  %146 = getelementptr inbounds nuw %struct.sib_msg_t, ptr %145, i32 0, i32 15
  %147 = load ptr, ptr %6, align 8
  %148 = call i32 @unpackstr_xmalloc_chooser(ptr noundef %146, ptr noundef %13, ptr noundef %147)
  %149 = icmp ne i32 %148, 0
  br i1 %149, label %150, label %151

150:                                              ; preds = %144
  store i32 4, ptr %12, align 4
  br label %152

151:                                              ; preds = %144
  store i32 0, ptr %12, align 4
  br label %152

152:                                              ; preds = %150, %151
  call void @llvm.lifetime.end.p0(i64 4, ptr %13) #6
  %153 = load i32, ptr %12, align 4
  switch i32 %153, label %211 [
    i32 0, label %154
    i32 4, label %208
  ]

154:                                              ; preds = %152
  br label %155

155:                                              ; preds = %154
  br label %156

156:                                              ; preds = %155
  br label %157

157:                                              ; preds = %156
  %158 = load ptr, ptr %8, align 8
  %159 = getelementptr inbounds nuw %struct.sib_msg_t, ptr %158, i32 0, i32 16
  %160 = load ptr, ptr %6, align 8
  %161 = call i32 @unpack16(ptr noundef %159, ptr noundef %160)
  %162 = icmp ne i32 %161, 0
  br i1 %162, label %163, label %164

163:                                              ; preds = %157
  br label %208

164:                                              ; preds = %157
  br label %165

165:                                              ; preds = %164
  br label %166

166:                                              ; preds = %165
  br label %167

167:                                              ; preds = %166
  %168 = load ptr, ptr %8, align 8
  %169 = getelementptr inbounds nuw %struct.sib_msg_t, ptr %168, i32 0, i32 17
  %170 = load ptr, ptr %6, align 8
  %171 = call i32 @unpack32(ptr noundef %169, ptr noundef %170)
  %172 = icmp ne i32 %171, 0
  br i1 %172, label %173, label %174

173:                                              ; preds = %167
  br label %208

174:                                              ; preds = %167
  br label %175

175:                                              ; preds = %174
  br label %176

176:                                              ; preds = %175
  br label %177

177:                                              ; preds = %176
  %178 = load ptr, ptr %6, align 8
  %179 = call i32 @unpack16(ptr noundef %10, ptr noundef %178)
  %180 = icmp ne i32 %179, 0
  br i1 %180, label %181, label %182

181:                                              ; preds = %177
  br label %208

182:                                              ; preds = %177
  br label %183

183:                                              ; preds = %182
  br label %184

184:                                              ; preds = %183
  %185 = load i16, ptr %10, align 2
  %186 = icmp ne i16 %185, 0
  br i1 %186, label %187, label %206

187:                                              ; preds = %184
  call void @slurm_msg_t_init(ptr noundef %9)
  %188 = load ptr, ptr %8, align 8
  %189 = getelementptr inbounds nuw %struct.sib_msg_t, ptr %188, i32 0, i32 4
  %190 = load i16, ptr %189, align 4
  %191 = getelementptr inbounds nuw %struct.slurm_msg, ptr %9, i32 0, i32 16
  store i16 %190, ptr %191, align 4
  %192 = load ptr, ptr %8, align 8
  %193 = getelementptr inbounds nuw %struct.sib_msg_t, ptr %192, i32 0, i32 5
  %194 = load i16, ptr %193, align 2
  %195 = getelementptr inbounds nuw %struct.slurm_msg, ptr %9, i32 0, i32 17
  store i16 %194, ptr %195, align 2
  %196 = load ptr, ptr %6, align 8
  %197 = call i32 @unpack_msg(ptr noundef %9, ptr noundef %196)
  %198 = icmp ne i32 %197, 0
  br i1 %198, label %199, label %200

199:                                              ; preds = %187
  br label %208

200:                                              ; preds = %187
  %201 = getelementptr inbounds nuw %struct.slurm_msg, ptr %9, i32 0, i32 13
  %202 = load ptr, ptr %201, align 8
  %203 = load ptr, ptr %8, align 8
  %204 = getelementptr inbounds nuw %struct.sib_msg_t, ptr %203, i32 0, i32 1
  store ptr %202, ptr %204, align 8
  %205 = getelementptr inbounds nuw %struct.slurm_msg, ptr %9, i32 0, i32 13
  store ptr null, ptr %205, align 8
  call void @slurm_free_msg_members(ptr noundef %9)
  br label %206

206:                                              ; preds = %200, %184
  br label %207

207:                                              ; preds = %206, %3
  store i32 0, ptr %4, align 4
  store i32 1, ptr %12, align 4
  br label %211

208:                                              ; preds = %152, %119, %199, %181, %173, %163, %140, %130, %107, %97, %87, %77, %67, %57, %47, %37, %27
  %209 = load ptr, ptr %8, align 8
  call void @slurm_free_sib_msg(ptr noundef %209)
  %210 = load ptr, ptr %5, align 8
  store ptr null, ptr %210, align 8
  store i32 -1, ptr %4, align 4
  store i32 1, ptr %12, align 4
  br label %211

211:                                              ; preds = %208, %207, %152, %119
  call void @llvm.lifetime.end.p0(i64 2, ptr %10) #6
  call void @llvm.lifetime.end.p0(i64 424, ptr %9) #6
  call void @llvm.lifetime.end.p0(i64 8, ptr %8) #6
  %212 = load i32, ptr %4, align 4
  ret i32 %212
}