; Function Attrs: nounwind uwtable
define internal fastcc noundef range(i32 -1, 1) i32 @_unpack_sib_msg(ptr noundef writeonly captures(none) %0, ptr noundef %1, i16 noundef zeroext %2) unnamed_addr #0 {
  %4 = alloca %struct.slurm_msg, align 8
  %5 = alloca i16, align 2
  %6 = alloca i32, align 4
  %7 = alloca i32, align 4
  call void @llvm.lifetime.start.p0(i64 424, ptr nonnull %4) #7
  call void @llvm.lifetime.start.p0(i64 2, ptr nonnull %5) #7
  %8 = icmp ugt i16 %2, 10239
  br i1 %8, label %9, label %69

9:                                                ; preds = %3
  %10 = tail call ptr @slurm_xcalloc(i64 noundef 1, i64 noundef 96, i1 noundef zeroext true, i1 noundef zeroext false, ptr noundef nonnull @.str.2, i32 noundef 5493, ptr noundef nonnull @__func__._unpack_sib_msg) #7
  store ptr %10, ptr %0, align 8
  %11 = tail call i32 @unpack32(ptr noundef %10, ptr noundef %1) #7
  %.not = icmp eq i32 %11, 0
  br i1 %.not, label %12, label %68

12:                                               ; preds = %9
  %13 = getelementptr inbounds nuw i8, ptr %10, i64 28
  %14 = tail call i32 @unpack16(ptr noundef nonnull %13, ptr noundef %1) #7
  %.not43 = icmp eq i32 %14, 0
  br i1 %.not43, label %15, label %68

15:                                               ; preds = %12
  %16 = getelementptr inbounds nuw i8, ptr %10, i64 30
  %17 = tail call i32 @unpack16(ptr noundef nonnull %16, ptr noundef %1) #7
  %.not44 = icmp eq i32 %17, 0
  br i1 %.not44, label %18, label %68

18:                                               ; preds = %15
  %19 = getelementptr inbounds nuw i8, ptr %10, i64 32
  %20 = tail call i32 @unpack64(ptr noundef nonnull %19, ptr noundef %1) #7
  %.not45 = icmp eq i32 %20, 0
  br i1 %.not45, label %21, label %68

21:                                               ; preds = %18
  %22 = getelementptr inbounds nuw i8, ptr %10, i64 40
  %23 = tail call i32 @unpack32(ptr noundef nonnull %22, ptr noundef %1) #7
  %.not46 = icmp eq i32 %23, 0
  br i1 %.not46, label %24, label %68

24:                                               ; preds = %21
  %25 = getelementptr inbounds nuw i8, ptr %10, i64 44
  %26 = tail call i32 @unpack32(ptr noundef nonnull %25, ptr noundef %1) #7
  %.not47 = icmp eq i32 %26, 0
  br i1 %.not47, label %27, label %68

27:                                               ; preds = %24
  %28 = getelementptr inbounds nuw i8, ptr %10, i64 48
  %29 = tail call i32 @unpack32(ptr noundef nonnull %28, ptr noundef %1) #7
  %.not48 = icmp eq i32 %29, 0
  br i1 %.not48, label %30, label %68

30:                                               ; preds = %27
  %31 = getelementptr inbounds nuw i8, ptr %10, i64 52
  %32 = tail call i32 @unpack32(ptr noundef nonnull %31, ptr noundef %1) #7
  %.not49 = icmp eq i32 %32, 0
  br i1 %.not49, label %33, label %68

33:                                               ; preds = %30
  %34 = getelementptr inbounds nuw i8, ptr %10, i64 56
  %35 = tail call i32 @unpack_time(ptr noundef nonnull %34, ptr noundef %1) #7
  %.not50 = icmp eq i32 %35, 0
  br i1 %.not50, label %36, label %68

36:                                               ; preds = %33
  call void @llvm.lifetime.start.p0(i64 4, ptr nonnull %6) #7
  %37 = getelementptr inbounds nuw i8, ptr %10, i64 64
  %38 = call i32 @unpackstr_xmalloc_chooser(ptr noundef nonnull %37, ptr noundef nonnull %6, ptr noundef %1) #7
  %.not51 = icmp eq i32 %38, 0
  call void @llvm.lifetime.end.p0(i64 4, ptr nonnull %6) #7
  br i1 %.not51, label %39, label %68

39:                                               ; preds = %36
  %40 = getelementptr inbounds nuw i8, ptr %10, i64 72
  %41 = call i32 @unpack32(ptr noundef nonnull %40, ptr noundef %1) #7
  %.not52 = icmp eq i32 %41, 0
  br i1 %.not52, label %42, label %68

42:                                               ; preds = %39
  %43 = getelementptr inbounds nuw i8, ptr %10, i64 76
  %44 = call i32 @unpack16(ptr noundef nonnull %43, ptr noundef %1) #7
  %.not53 = icmp eq i32 %44, 0
  br i1 %.not53, label %45, label %68

45:                                               ; preds = %42
  call void @llvm.lifetime.start.p0(i64 4, ptr nonnull %7) #7
  %46 = getelementptr inbounds nuw i8, ptr %10, i64 80
  %47 = call i32 @unpackstr_xmalloc_chooser(ptr noundef nonnull %46, ptr noundef nonnull %7, ptr noundef %1) #7
  %.not54 = icmp eq i32 %47, 0
  call void @llvm.lifetime.end.p0(i64 4, ptr nonnull %7) #7
  br i1 %.not54, label %48, label %68

48:                                               ; preds = %45
  %49 = getelementptr inbounds nuw i8, ptr %10, i64 88
  %50 = call i32 @unpack16(ptr noundef nonnull %49, ptr noundef %1) #7
  %.not55 = icmp eq i32 %50, 0
  br i1 %.not55, label %51, label %68

51:                                               ; preds = %48
  %52 = getelementptr inbounds nuw i8, ptr %10, i64 92
  %53 = call i32 @unpack32(ptr noundef nonnull %52, ptr noundef %1) #7
  %.not56 = icmp eq i32 %53, 0
  br i1 %.not56, label %54, label %68

54:                                               ; preds = %51
  %55 = call i32 @unpack16(ptr noundef nonnull %5, ptr noundef %1) #7
  %.not57 = icmp eq i32 %55, 0
  br i1 %.not57, label %56, label %68

56:                                               ; preds = %54
  %57 = load i16, ptr %5, align 2
  %.not58 = icmp eq i16 %57, 0
  br i1 %.not58, label %69, label %58

58:                                               ; preds = %56
  call void @slurm_msg_t_init(ptr noundef nonnull %4) #7
  %59 = load i16, ptr %13, align 4
  %60 = getelementptr inbounds nuw i8, ptr %4, i64 212
  store i16 %59, ptr %60, align 4
  %61 = load i16, ptr %16, align 2
  %62 = getelementptr inbounds nuw i8, ptr %4, i64 214
  store i16 %61, ptr %62, align 2
  %63 = call i32 @unpack_msg(ptr noundef nonnull %4, ptr noundef %1)
  %.not59 = icmp eq i32 %63, 0
  br i1 %.not59, label %64, label %68

64:                                               ; preds = %58
  %65 = getelementptr inbounds nuw i8, ptr %4, i64 200
  %66 = load ptr, ptr %65, align 8
  %67 = getelementptr inbounds nuw i8, ptr %10, i64 8
  store ptr %66, ptr %67, align 8
  store ptr null, ptr %65, align 8
  call void @slurm_free_msg_members(ptr noundef nonnull %4) #7
  br label %69

68:                                               ; preds = %45, %36, %58, %54, %51, %48, %42, %39, %33, %30, %27, %24, %21, %18, %15, %12, %9
  call void @slurm_free_sib_msg(ptr noundef %10) #7
  store ptr null, ptr %0, align 8
  br label %69

69:                                               ; preds = %3, %64, %56, %68
  %.042 = phi i32 [ -1, %68 ], [ 0, %56 ], [ 0, %64 ], [ 0, %3 ]
  call void @llvm.lifetime.end.p0(i64 2, ptr nonnull %5) #7
  call void @llvm.lifetime.end.p0(i64 424, ptr nonnull %4) #7
  ret i32 %.042
}